target datalayout = "e-m:e-p270:32:32-p271:32:32-p272:64:64-i64:64-i128:128-f80:128-n8:16:32:64-S128"
target triple = "x86_64-pc-linux-gnu"

%struct.json_parse_t = type { ptr, ptr, ptr, ptr, i32 }

@.str.58 = private unnamed_addr constant [4 x i8] c"nan\00", align 1
@.str.71 = private unnamed_addr constant [4 x i8] c"inf\00", align 1

; Function Attrs: nounwind uwtable
define internal i32 @json_is_invalid_number(ptr noundef %0) #0 {
  %2 = alloca i32, align 4
  %3 = alloca ptr, align 8
  %4 = alloca ptr, align 8
  %5 = alloca i32, align 4
  %6 = alloca i32, align 4
  store ptr %0, ptr %3, align 8, !tbaa !15
  call void @llvm.lifetime.start.p0(i64 8, ptr %4) #9
  %7 = load ptr, ptr %3, align 8, !tbaa !15
  %8 = getelementptr inbounds nuw %struct.json_parse_t, ptr %7, i32 0, i32 1
  %9 = load ptr, ptr %8, align 8, !tbaa !25
  store ptr %9, ptr %4, align 8, !tbaa !11
  %10 = load ptr, ptr %4, align 8, !tbaa !11
  %11 = load i8, ptr %10, align 1, !tbaa !26
  %12 = sext i8 %11 to i32
  %13 = icmp eq i32 %12, 43
  br i1 %13, label %14, label %15

14:                                               ; preds = %1
  store i32 1, ptr %2, align 4
  store i32 1, ptr %5, align 4
  br label %63

15:                                               ; preds = %1
  %16 = load ptr, ptr %4, align 8, !tbaa !11
  %17 = load i8, ptr %16, align 1, !tbaa !26
  %18 = sext i8 %17 to i32
  %19 = icmp eq i32 %18, 45
  br i1 %19, label %20, label %23

20:                                               ; preds = %15
  %21 = load ptr, ptr %4, align 8, !tbaa !11
  %22 = getelementptr inbounds nuw i8, ptr %21, i32 1
  store ptr %22, ptr %4, align 8, !tbaa !11
  br label %23

23:                                               ; preds = %20, %15
  %24 = load ptr, ptr %4, align 8, !tbaa !11
  %25 = load i8, ptr %24, align 1, !tbaa !26
  %26 = sext i8 %25 to i32
  %27 = icmp eq i32 %26, 48
  br i1 %27, label %28, label %45

28:                                               ; preds = %23
  call void @llvm.lifetime.start.p0(i64 4, ptr %6) #9
  %29 = load ptr, ptr %4, align 8, !tbaa !11
  %30 = getelementptr inbounds i8, ptr %29, i64 1
  %31 = load i8, ptr %30, align 1, !tbaa !26
  %32 = sext i8 %31 to i32
  store i32 %32, ptr %6, align 4, !tbaa !9
  %33 = load i32, ptr %6, align 4, !tbaa !9
  %34 = or i32 %33, 32
  %35 = icmp eq i32 %34, 120
  br i1 %35, label %42, label %36

36:                                               ; preds = %28
  %37 = load i32, ptr %6, align 4, !tbaa !9
  %38 = icmp sle i32 48, %37
  br i1 %38, label %39, label %43

39:                                               ; preds = %36
  %40 = load i32, ptr %6, align 4, !tbaa !9
  %41 = icmp sle i32 %40, 57
  br i1 %41, label %42, label %43

42:                                               ; preds = %39, %28
  store i32 1, ptr %2, align 4
  store i32 1, ptr %5, align 4
  br label %44

43:                                               ; preds = %39, %36
  store i32 0, ptr %2, align 4
  store i32 1, ptr %5, align 4
  br label %44

44:                                               ; preds = %43, %42
  call void @llvm.lifetime.end.p0(i64 4, ptr %6) #9
  br label %63

45:                                               ; preds = %23
  %46 = load ptr, ptr %4, align 8, !tbaa !11
  %47 = load i8, ptr %46, align 1, !tbaa !26
  %48 = sext i8 %47 to i32
  %49 = icmp sle i32 %48, 57
  br i1 %49, label %50, label %51

50:                                               ; preds = %45
  store i32 0, ptr %2, align 4
  store i32 1, ptr %5, align 4
  br label %63

51:                                               ; preds = %45
  br label %52

52:                                               ; preds = %51
  %53 = load ptr, ptr %4, align 8, !tbaa !11
  %54 = call i32 @strncasecmp(ptr noundef %53, ptr noundef @.str.71, i64 noundef 3) #12
  %55 = icmp ne i32 %54, 0
  br i1 %55, label %57, label %56

56:                                               ; preds = %52
  store i32 1, ptr %2, align 4
  store i32 1, ptr %5, align 4
  br label %63

57:                                               ; preds = %52
  %58 = load ptr, ptr %4, align 8, !tbaa !11
  %59 = call i32 @strncasecmp(ptr noundef %58, ptr noundef @.str.58, i64 noundef 3) #12
  %60 = icmp ne i32 %59, 0
  br i1 %60, label %62, label %61

61:                                               ; preds = %57
  store i32 1, ptr %2, align 4
  store i32 1, ptr %5, align 4
  br label %63

62:                                               ; preds = %57
  store i32 0, ptr %2, align 4
  store i32 1, ptr %5, align 4
  br label %63

63:                                               ; preds = %62, %61, %56, %50, %44, %14
  call void @llvm.lifetime.end.p0(i64 8, ptr %4) #9
  %64 = load i32, ptr %2, align 4
  ret i32 %64
}