; Function Attrs: mustprogress nofree nounwind willreturn memory(read) uwtable
define internal fastcc range(i32 0, 2) i32 @json_is_invalid_number(ptr readonly captures(none) %.8.val) unnamed_addr #7 {
  %1 = load i8, ptr %.8.val, align 1, !tbaa !25
  switch i8 %1, label %4 [
    i8 43, label %19
    i8 45, label %2
  ]

2:                                                ; preds = %0
  %3 = getelementptr inbounds nuw i8, ptr %.8.val, i64 1
  %.pr = load i8, ptr %3, align 1, !tbaa !25
  br label %4

4:                                                ; preds = %0, %2
  %5 = phi i8 [ %1, %0 ], [ %.pr, %2 ]
  %.013 = phi ptr [ %.8.val, %0 ], [ %3, %2 ]
  %6 = icmp eq i8 %5, 48
  br i1 %6, label %7, label %13

7:                                                ; preds = %4
  %8 = getelementptr inbounds nuw i8, ptr %.013, i64 1
  %9 = load i8, ptr %8, align 1, !tbaa !25
  %10 = and i8 %9, -33
  %11 = icmp eq i8 %10, 88
  %12 = add i8 %9, -48
  %or.cond = icmp ult i8 %12, 10
  %or.cond17 = or i1 %11, %or.cond
  br label %19

13:                                               ; preds = %4
  %14 = icmp slt i8 %5, 58
  br i1 %14, label %19, label %15

15:                                               ; preds = %13
  %16 = tail call i32 @strncasecmp(ptr noundef nonnull %.013, ptr noundef nonnull @.str.71, i64 noundef 3) #14
  %.not = icmp eq i32 %16, 0
  br i1 %.not, label %19, label %17

17:                                               ; preds = %15
  %18 = tail call i32 @strncasecmp(ptr noundef nonnull %.013, ptr noundef nonnull @.str.58, i64 noundef 3) #14
  %.not16 = icmp eq i32 %18, 0
  br label %19

19:                                               ; preds = %17, %15, %13, %0, %7
  %.0.shrunk = phi i1 [ %or.cond17, %7 ], [ true, %0 ], [ false, %13 ], [ true, %15 ], [ %.not16, %17 ]
  %.0 = zext i1 %.0.shrunk to i32
  ret i32 %.0
}